; Function Attrs: mustprogress uwtable
define hidden void @_ZNK6Assimp7Blender9Structure7ConvertINS0_5SceneEEEvRT_RKNS0_12FileDatabaseE(ptr noundef nonnull align 8 dereferenceable(120) %0, ptr noundef nonnull align 8 dereferenceable(1176) %1, ptr noundef nonnull align 8 dereferenceable(232) %2) local_unnamed_addr #0 align 2 personality ptr @__gxx_personality_v0 {
  %4 = getelementptr inbounds nuw i8, ptr %1, i64 16
  tail call void @_ZNK6Assimp7Blender9Structure9ReadFieldILi2ENS0_2IDEEEvRT0_PKcRKNS0_12FileDatabaseE(ptr noundef nonnull align 8 dereferenceable(120) %0, ptr noundef nonnull align 8 dereferenceable(1042) %4, ptr noundef nonnull @.str, ptr noundef nonnull align 8 dereferenceable(232) %2)
  %5 = getelementptr inbounds nuw i8, ptr %1, i64 1064
  %6 = tail call noundef zeroext i1 @_ZNK6Assimp7Blender9Structure12ReadFieldPtrILi1ESt10shared_ptrNS0_6ObjectEEEbRT0_IT1_EPKcRKNS0_12FileDatabaseEb(ptr noundef nonnull align 8 dereferenceable(120) %0, ptr noundef nonnull align 8 dereferenceable(16) %5, ptr noundef nonnull @.str.226, ptr noundef nonnull align 8 dereferenceable(232) %2, i1 noundef zeroext false)
  %7 = getelementptr inbounds nuw i8, ptr %1, i64 1080
  %8 = tail call noundef zeroext i1 @_ZNK6Assimp7Blender9Structure12ReadFieldPtrILi1ESt10shared_ptrNS0_5WorldEEEbRT0_IT1_EPKcRKNS0_12FileDatabaseEb(ptr noundef nonnull align 8 dereferenceable(120) %0, ptr noundef nonnull align 8 dereferenceable(16) %7, ptr noundef nonnull @.str.227, ptr noundef nonnull align 8 dereferenceable(232) %2, i1 noundef zeroext false)
  %9 = getelementptr inbounds nuw i8, ptr %1, i64 1096
  %10 = tail call noundef zeroext i1 @_ZNK6Assimp7Blender9Structure12ReadFieldPtrILi1ESt10shared_ptrNS0_4BaseEEEbRT0_IT1_EPKcRKNS0_12FileDatabaseEb(ptr noundef nonnull align 8 dereferenceable(120) %0, ptr noundef nonnull align 8 dereferenceable(16) %9, ptr noundef nonnull @.str.228, ptr noundef nonnull align 8 dereferenceable(232) %2, i1 noundef zeroext false)
  %11 = getelementptr inbounds nuw i8, ptr %1, i64 1112
  %12 = tail call noundef zeroext i1 @_ZNK6Assimp7Blender9Structure12ReadFieldPtrILi1ESt10shared_ptrNS0_10CollectionEEEbRT0_IT1_EPKcRKNS0_12FileDatabaseEb(ptr noundef nonnull align 8 dereferenceable(120) %0, ptr noundef nonnull align 8 dereferenceable(16) %11, ptr noundef nonnull @.str.229, ptr noundef nonnull align 8 dereferenceable(232) %2, i1 noundef zeroext false)
  %13 = getelementptr inbounds nuw i8, ptr %1, i64 1128
  tail call void @_ZNK6Assimp7Blender9Structure9ReadFieldILi0ENS0_8ListBaseEEEvRT0_PKcRKNS0_12FileDatabaseE(ptr noundef nonnull align 8 dereferenceable(120) %0, ptr noundef nonnull align 8 dereferenceable(48) %13, ptr noundef nonnull @.str.230, ptr noundef nonnull align 8 dereferenceable(232) %2)
  %14 = getelementptr inbounds nuw i8, ptr %2, i64 128
  %15 = load ptr, ptr %14, align 8
  %16 = getelementptr inbounds nuw i8, ptr %0, i64 104
  %17 = load i64, ptr %16, align 8
  %18 = getelementptr inbounds nuw i8, ptr %15, i64 24
  %19 = load ptr, ptr %18, align 8
  %20 = getelementptr inbounds i8, ptr %19, i64 %17
  store ptr %20, ptr %18, align 8
  %21 = getelementptr inbounds nuw i8, ptr %15, i64 40
  %22 = load ptr, ptr %21, align 8
  %23 = icmp ugt ptr %20, %22
  br i1 %23, label %24, label %_ZN6Assimp12StreamReaderILb1ELb1EE6IncPtrEl.exit

24:                                               ; preds = %3
  %25 = tail call ptr @__cxa_allocate_exception(i64 16) #23
  invoke void @_ZN17DeadlyImportErrorC2EPKc(ptr noundef nonnull align 8 dereferenceable(16) %25, ptr noundef nonnull @.str.307)
          to label %26 unwind label %27

26:                                               ; preds = %24
  tail call void @__cxa_throw(ptr nonnull %25, ptr nonnull @_ZTI17DeadlyImportError, ptr nonnull @_ZNSt13runtime_errorD2Ev) #24
  unreachable

27:                                               ; preds = %24
  %28 = landingpad { ptr, i32 }
          cleanup
  tail call void @__cxa_free_exception(ptr nonnull %25) #23
  resume { ptr, i32 } %28

_ZN6Assimp12StreamReaderILb1ELb1EE6IncPtrEl.exit: ; preds = %3
  ret void
}